; Function Attrs: mustprogress uwtable
define void @_ZNK6casadi7Inverse10ad_forwardERKSt6vectorIS1_INS_2MXESaIS2_EESaIS4_EERS6_(ptr noundef nonnull align 8 dereferenceable(64) %0, ptr nocapture noundef nonnull readonly align 8 dereferenceable(24) %1, ptr nocapture noundef nonnull readonly align 8 dereferenceable(24) %2) unnamed_addr #3 align 2 personality ptr @__gxx_personality_v0 {
  %4 = alloca %"class.casadi::MX", align 8
  %5 = alloca %"class.casadi::MX", align 8
  %6 = alloca %"class.casadi::MX", align 8
  %7 = alloca %"class.casadi::MX", align 8
  call void @_ZNK6casadi20SharedObjectInternal16shared_from_thisINS_2MXEEEKT_v(ptr dead_on_unwind nonnull writable sret(%"class.casadi::MX") align 8 %4, ptr noundef nonnull align 8 dereferenceable(24) %0)
  %8 = getelementptr inbounds i8, ptr %2, i64 8
  %9 = load ptr, ptr %8, align 8
  %10 = load ptr, ptr %2, align 8
  %.not = icmp eq ptr %9, %10
  br i1 %.not, label %._crit_edge, label %.lr.ph

.lr.ph:                                           ; preds = %3, %_ZN6casadi2MXaSERKS0_.exit
  %.01217 = phi i64 [ %19, %_ZN6casadi2MXaSERKS0_.exit ], [ 0, %3 ]
  %11 = load ptr, ptr %1, align 8
  %12 = getelementptr inbounds %"class.std::vector", ptr %11, i64 %.01217
  %13 = load ptr, ptr %12, align 8
  invoke void @_ZN6casadi2MX6mtimesERKS0_S2_(ptr dead_on_unwind nonnull writable sret(%"class.casadi::MX") align 8 %7, ptr noundef nonnull align 8 dereferenceable(8) %13, ptr noundef nonnull align 8 dereferenceable(8) %4)
          to label %_ZN6casadi6mtimesERKNS_2MXES2_.exit unwind label %27

_ZN6casadi6mtimesERKNS_2MXES2_.exit:              ; preds = %.lr.ph
  invoke void @_ZN6casadi2MX6mtimesERKS0_S2_(ptr dead_on_unwind nonnull writable sret(%"class.casadi::MX") align 8 %6, ptr noundef nonnull align 8 dereferenceable(8) %4, ptr noundef nonnull align 8 dereferenceable(8) %7)
          to label %_ZN6casadi6mtimesERKNS_2MXES2_.exit16 unwind label %29

_ZN6casadi6mtimesERKNS_2MXES2_.exit16:            ; preds = %_ZN6casadi6mtimesERKNS_2MXES2_.exit
  invoke void @_ZNK6casadi2MXngEv(ptr dead_on_unwind nonnull writable sret(%"class.casadi::MX") align 8 %5, ptr noundef nonnull align 8 dereferenceable(8) %6)
          to label %14 unwind label %31

14:                                               ; preds = %_ZN6casadi6mtimesERKNS_2MXES2_.exit16
  %15 = load ptr, ptr %2, align 8
  %16 = getelementptr inbounds %"class.std::vector", ptr %15, i64 %.01217
  %17 = load ptr, ptr %16, align 8
  %18 = invoke noundef nonnull align 8 dereferenceable(8) ptr @_ZN6casadi12SharedObjectaSERKS0_(ptr noundef nonnull align 8 dereferenceable(8) %17, ptr noundef nonnull align 8 dereferenceable(8) %5)
          to label %_ZN6casadi2MXaSERKS0_.exit unwind label %33

_ZN6casadi2MXaSERKS0_.exit:                       ; preds = %14
  call void @_ZN6casadi2MXD1Ev(ptr noundef nonnull align 8 dereferenceable(8) %5) #12
  call void @_ZN6casadi2MXD1Ev(ptr noundef nonnull align 8 dereferenceable(8) %6) #12
  call void @_ZN6casadi2MXD1Ev(ptr noundef nonnull align 8 dereferenceable(8) %7) #12
  %19 = add nuw nsw i64 %.01217, 1
  %20 = load ptr, ptr %8, align 8
  %21 = load ptr, ptr %2, align 8
  %22 = ptrtoint ptr %20 to i64
  %23 = ptrtoint ptr %21 to i64
  %24 = sub i64 %22, %23
  %25 = sdiv exact i64 %24, 24
  %26 = icmp ult i64 %19, %25
  br i1 %26, label %.lr.ph, label %._crit_edge, !llvm.loop !9

27:                                               ; preds = %.lr.ph
  %28 = landingpad { ptr, i32 }
          cleanup
  br label %37

29:                                               ; preds = %_ZN6casadi6mtimesERKNS_2MXES2_.exit
  %30 = landingpad { ptr, i32 }
          cleanup
  br label %36

31:                                               ; preds = %_ZN6casadi6mtimesERKNS_2MXES2_.exit16
  %32 = landingpad { ptr, i32 }
          cleanup
  br label %35

33:                                               ; preds = %14
  %34 = landingpad { ptr, i32 }
          cleanup
  call void @_ZN6casadi2MXD1Ev(ptr noundef nonnull align 8 dereferenceable(8) %5) #12
  br label %35

35:                                               ; preds = %33, %31
  %.pn = phi { ptr, i32 } [ %34, %33 ], [ %32, %31 ]
  call void @_ZN6casadi2MXD1Ev(ptr noundef nonnull align 8 dereferenceable(8) %6) #12
  br label %36

36:                                               ; preds = %35, %29
  %.pn.pn = phi { ptr, i32 } [ %.pn, %35 ], [ %30, %29 ]
  call void @_ZN6casadi2MXD1Ev(ptr noundef nonnull align 8 dereferenceable(8) %7) #12
  br label %37

._crit_edge:                                      ; preds = %_ZN6casadi2MXaSERKS0_.exit, %3
  call void @_ZN6casadi2MXD1Ev(ptr noundef nonnull align 8 dereferenceable(8) %4) #12
  ret void

37:                                               ; preds = %36, %27
  %.pn.pn.pn = phi { ptr, i32 } [ %.pn.pn, %36 ], [ %28, %27 ]
  call void @_ZN6casadi2MXD1Ev(ptr noundef nonnull align 8 dereferenceable(8) %4) #12
  resume { ptr, i32 } %.pn.pn.pn
}